; Function Attrs: mustprogress uwtable
define internal void @_ZN11opencv_testL43gtest_TestStereoCorrespBM_BM_EvalGenerator_Ev(ptr dead_on_unwind noalias writable sret(%"class.testing::internal::ParamGenerator.44") align 8 %0) #4 {
  %2 = alloca %"class.testing::internal::CartesianProductHolder2", align 8
  call void @llvm.lifetime.start.p0(i64 24, ptr nonnull %2) #33
  store i64 3092376454400, ptr %2, align 8, !alias.scope !209
  %3 = getelementptr inbounds nuw i8, ptr %2, i64 8
  store i64 2061584302720, ptr %3, align 8, !alias.scope !209
  %4 = getelementptr inbounds nuw i8, ptr %2, i64 16
  store i32 256, ptr %4, align 8, !tbaa !97, !alias.scope !209
  %5 = getelementptr inbounds nuw i8, ptr %2, i64 20
  store i32 128, ptr %5, align 4, !tbaa !99, !alias.scope !209
  call void @_ZNK7testing8internal23CartesianProductHolder2INS0_11ValueArray2IN2cv5Size_IiEES5_EENS2_IiiEEEcvNS0_14ParamGeneratorISt5tupleIJT_T0_EEEEIS5_iEEv(ptr dead_on_unwind writable sret(%"class.testing::internal::ParamGenerator.44") align 8 %0, ptr noundef nonnull align 4 dereferenceable(24) %2)
  call void @llvm.lifetime.end.p0(i64 24, ptr nonnull %2) #33
  ret void
}